; Function Attrs: mustprogress uwtable
define void @_ZN5boost6locale4util11create_infoERKSt6localeRKNSt7__cxx1112basic_stringIcSt11char_traitsIcESaIcEEE(ptr dead_on_unwind noalias writable sret(%"class.std::locale") align 8 %0, ptr noundef nonnull align 8 dereferenceable(8) %1, ptr noundef nonnull align 8 dereferenceable(32) %2) local_unnamed_addr #0 personality ptr @__gxx_personality_v0 {
  %4 = tail call noalias noundef nonnull dereferenceable(184) ptr @_Znwm(i64 noundef 184) #12
  invoke void @_ZN5boost6locale4util11simple_infoC2ERKNSt7__cxx1112basic_stringIcSt11char_traitsIcESaIcEEEm(ptr noundef nonnull align 8 dereferenceable(184) %4, ptr noundef nonnull align 8 dereferenceable(32) %2, i64 noundef 0)
          to label %5 unwind label %6

5:                                                ; preds = %3
  tail call void @_ZNSt6localeC2IN5boost6locale4util11simple_infoEEERKS_PT_(ptr noundef nonnull align 8 dereferenceable(8) %0, ptr noundef nonnull align 8 dereferenceable(8) %1, ptr noundef nonnull %4)
  ret void

6:                                                ; preds = %3
  %7 = landingpad { ptr, i32 }
          cleanup
  tail call void @_ZdlPvm(ptr noundef nonnull %4, i64 noundef 184) #13
  resume { ptr, i32 } %7
}